target datalayout = "e-m:e-p270:32:32-p271:32:32-p272:64:64-i64:64-i128:128-f80:128-n8:16:32:64-S128"
target triple = "x86_64-pc-linux-gnu"

; Function Attrs: nounwind uwtable
define i32 @lv_strcmp(ptr noundef %0, ptr noundef %1) #0 {
  %3 = alloca ptr, align 8
  %4 = alloca ptr, align 8
  store ptr %0, ptr %3, align 8, !tbaa !3
  store ptr %1, ptr %4, align 8, !tbaa !3
  br label %5

5:                                                ; preds = %20, %2
  %6 = load ptr, ptr %3, align 8, !tbaa !3
  %7 = load i8, ptr %6, align 1, !tbaa !9
  %8 = sext i8 %7 to i32
  %9 = icmp ne i32 %8, 0
  br i1 %9, label %10, label %18

10:                                               ; preds = %5
  %11 = load ptr, ptr %3, align 8, !tbaa !3
  %12 = load i8, ptr %11, align 1, !tbaa !9
  %13 = sext i8 %12 to i32
  %14 = load ptr, ptr %4, align 8, !tbaa !3
  %15 = load i8, ptr %14, align 1, !tbaa !9
  %16 = sext i8 %15 to i32
  %17 = icmp eq i32 %13, %16
  br label %18

18:                                               ; preds = %10, %5
  %19 = phi i1 [ false, %5 ], [ %17, %10 ]
  br i1 %19, label %20, label %25

20:                                               ; preds = %18
  %21 = load ptr, ptr %3, align 8, !tbaa !3
  %22 = getelementptr inbounds nuw i8, ptr %21, i32 1
  store ptr %22, ptr %3, align 8, !tbaa !3
  %23 = load ptr, ptr %4, align 8, !tbaa !3
  %24 = getelementptr inbounds nuw i8, ptr %23, i32 1
  store ptr %24, ptr %4, align 8, !tbaa !3
  br label %5, !llvm.loop !31

25:                                               ; preds = %18
  %26 = load ptr, ptr %3, align 8, !tbaa !3
  %27 = load i8, ptr %26, align 1, !tbaa !9
  %28 = zext i8 %27 to i32
  %29 = load ptr, ptr %4, align 8, !tbaa !3
  %30 = load i8, ptr %29, align 1, !tbaa !9
  %31 = zext i8 %30 to i32
  %32 = sub nsw i32 %28, %31
  ret i32 %32
}