; Function Attrs: nofree norecurse nosync nounwind memory(argmem: read) uwtable
define range(i32 -255, 256) i32 @lv_strcmp(ptr nocapture noundef readonly %0, ptr nocapture noundef readonly %1) local_unnamed_addr #2 {
  %3 = load i8, ptr %0, align 1, !tbaa !3
  %.not9 = icmp eq i8 %3, 0
  br i1 %.not9, label %.critedge, label %.lr.ph

.lr.ph:                                           ; preds = %2, %7
  %4 = phi i8 [ %10, %7 ], [ %3, %2 ]
  %.011 = phi ptr [ %9, %7 ], [ %1, %2 ]
  %.0710 = phi ptr [ %8, %7 ], [ %0, %2 ]
  %5 = load i8, ptr %.011, align 1, !tbaa !3
  %6 = icmp eq i8 %4, %5
  br i1 %6, label %7, label %.critedge.loopexit

7:                                                ; preds = %.lr.ph
  %8 = getelementptr inbounds nuw i8, ptr %.0710, i64 1
  %9 = getelementptr inbounds nuw i8, ptr %.011, i64 1
  %10 = load i8, ptr %8, align 1, !tbaa !3
  %.not = icmp eq i8 %10, 0
  br i1 %.not, label %.critedge.loopexit, label %.lr.ph, !llvm.loop !24

.critedge.loopexit:                               ; preds = %7, %.lr.ph
  %.0.lcssa.ph = phi ptr [ %.011, %.lr.ph ], [ %9, %7 ]
  %.lcssa.ph = phi i8 [ %4, %.lr.ph ], [ 0, %7 ]
  %11 = zext i8 %.lcssa.ph to i32
  br label %.critedge

.critedge:                                        ; preds = %.critedge.loopexit, %2
  %.0.lcssa = phi ptr [ %1, %2 ], [ %.0.lcssa.ph, %.critedge.loopexit ]
  %.lcssa = phi i32 [ 0, %2 ], [ %11, %.critedge.loopexit ]
  %12 = load i8, ptr %.0.lcssa, align 1, !tbaa !3
  %13 = zext i8 %12 to i32
  %14 = sub nsw i32 %.lcssa, %13
  ret i32 %14
}